target datalayout = "e-m:e-p270:32:32-p271:32:32-p272:64:64-i64:64-i128:128-f80:128-n8:16:32:64-S128"
target triple = "x86_64-pc-linux-gnu"

%struct.nghttp2_buf = type { ptr, ptr, ptr, ptr, ptr }

; Function Attrs: inlinehint nounwind uwtable
define internal i64 @nghttp2_max_size(i64 noundef %0, i64 noundef %1) #3 {
  %3 = alloca i64, align 8
  %4 = alloca i64, align 8
  store i64 %0, ptr %3, align 8, !tbaa !14
  store i64 %1, ptr %4, align 8, !tbaa !14
  %5 = load i64, ptr %3, align 8, !tbaa !14
  %6 = load i64, ptr %4, align 8, !tbaa !14
  %7 = icmp ult i64 %5, %6
  br i1 %7, label %8, label %10

8:                                                ; preds = %2
  %9 = load i64, ptr %4, align 8, !tbaa !14
  br label %12

10:                                               ; preds = %2
  %11 = load i64, ptr %3, align 8, !tbaa !14
  br label %12

12:                                               ; preds = %10, %8
  %13 = phi i64 [ %9, %8 ], [ %11, %10 ]
  ret i64 %13
}

; Function Attrs: nounwind uwtable
define hidden i32 @nghttp2_buf_reserve(ptr noundef %0, i64 noundef %1, ptr noundef %2) #0 {
  %4 = alloca i32, align 4
  %5 = alloca ptr, align 8
  %6 = alloca i64, align 8
  %7 = alloca ptr, align 8
  %8 = alloca ptr, align 8
  %9 = alloca i64, align 8
  %10 = alloca i32, align 4
  store ptr %0, ptr %5, align 8, !tbaa !3
  store i64 %1, ptr %6, align 8, !tbaa !14
  store ptr %2, ptr %7, align 8, !tbaa !3
  call void @llvm.lifetime.start.p0(i64 8, ptr %8) #4
  call void @llvm.lifetime.start.p0(i64 8, ptr %9) #4
  %11 = load ptr, ptr %5, align 8, !tbaa !3
  %12 = getelementptr inbounds nuw %struct.nghttp2_buf, ptr %11, i32 0, i32 1
  %13 = load ptr, ptr %12, align 8, !tbaa !10
  %14 = load ptr, ptr %5, align 8, !tbaa !3
  %15 = getelementptr inbounds nuw %struct.nghttp2_buf, ptr %14, i32 0, i32 0
  %16 = load ptr, ptr %15, align 8, !tbaa !7
  %17 = ptrtoint ptr %13 to i64
  %18 = ptrtoint ptr %16 to i64
  %19 = sub i64 %17, %18
  store i64 %19, ptr %9, align 8, !tbaa !14
  %20 = load i64, ptr %9, align 8, !tbaa !14
  %21 = load i64, ptr %6, align 8, !tbaa !14
  %22 = icmp uge i64 %20, %21
  br i1 %22, label %23, label %24

23:                                               ; preds = %3
  store i32 0, ptr %4, align 4
  store i32 1, ptr %10, align 4
  br label %86

24:                                               ; preds = %3
  %25 = load i64, ptr %6, align 8, !tbaa !14
  %26 = load i64, ptr %9, align 8, !tbaa !14
  %27 = mul i64 %26, 2
  %28 = call i64 @nghttp2_max_size(i64 noundef %25, i64 noundef %27)
  store i64 %28, ptr %6, align 8, !tbaa !14
  %29 = load ptr, ptr %7, align 8, !tbaa !3
  %30 = load ptr, ptr %5, align 8, !tbaa !3
  %31 = getelementptr inbounds nuw %struct.nghttp2_buf, ptr %30, i32 0, i32 0
  %32 = load ptr, ptr %31, align 8, !tbaa !7
  %33 = load i64, ptr %6, align 8, !tbaa !14
  %34 = call ptr @nghttp2_mem_realloc(ptr noundef %29, ptr noundef %32, i64 noundef %33)
  store ptr %34, ptr %8, align 8, !tbaa !16
  %35 = load ptr, ptr %8, align 8, !tbaa !16
  %36 = icmp eq ptr %35, null
  br i1 %36, label %37, label %38

37:                                               ; preds = %24
  store i32 -901, ptr %4, align 4
  store i32 1, ptr %10, align 4
  br label %86

38:                                               ; preds = %24
  %39 = load ptr, ptr %8, align 8, !tbaa !16
  %40 = load ptr, ptr %5, align 8, !tbaa !3
  %41 = getelementptr inbounds nuw %struct.nghttp2_buf, ptr %40, i32 0, i32 2
  %42 = load ptr, ptr %41, align 8, !tbaa !11
  %43 = load ptr, ptr %5, align 8, !tbaa !3
  %44 = getelementptr inbounds nuw %struct.nghttp2_buf, ptr %43, i32 0, i32 0
  %45 = load ptr, ptr %44, align 8, !tbaa !7
  %46 = ptrtoint ptr %42 to i64
  %47 = ptrtoint ptr %45 to i64
  %48 = sub i64 %46, %47
  %49 = getelementptr inbounds i8, ptr %39, i64 %48
  %50 = load ptr, ptr %5, align 8, !tbaa !3
  %51 = getelementptr inbounds nuw %struct.nghttp2_buf, ptr %50, i32 0, i32 2
  store ptr %49, ptr %51, align 8, !tbaa !11
  %52 = load ptr, ptr %8, align 8, !tbaa !16
  %53 = load ptr, ptr %5, align 8, !tbaa !3
  %54 = getelementptr inbounds nuw %struct.nghttp2_buf, ptr %53, i32 0, i32 3
  %55 = load ptr, ptr %54, align 8, !tbaa !12
  %56 = load ptr, ptr %5, align 8, !tbaa !3
  %57 = getelementptr inbounds nuw %struct.nghttp2_buf, ptr %56, i32 0, i32 0
  %58 = load ptr, ptr %57, align 8, !tbaa !7
  %59 = ptrtoint ptr %55 to i64
  %60 = ptrtoint ptr %58 to i64
  %61 = sub i64 %59, %60
  %62 = getelementptr inbounds i8, ptr %52, i64 %61
  %63 = load ptr, ptr %5, align 8, !tbaa !3
  %64 = getelementptr inbounds nuw %struct.nghttp2_buf, ptr %63, i32 0, i32 3
  store ptr %62, ptr %64, align 8, !tbaa !12
  %65 = load ptr, ptr %8, align 8, !tbaa !16
  %66 = load ptr, ptr %5, align 8, !tbaa !3
  %67 = getelementptr inbounds nuw %struct.nghttp2_buf, ptr %66, i32 0, i32 4
  %68 = load ptr, ptr %67, align 8, !tbaa !13
  %69 = load ptr, ptr %5, align 8, !tbaa !3
  %70 = getelementptr inbounds nuw %struct.nghttp2_buf, ptr %69, i32 0, i32 0
  %71 = load ptr, ptr %70, align 8, !tbaa !7
  %72 = ptrtoint ptr %68 to i64
  %73 = ptrtoint ptr %71 to i64
  %74 = sub i64 %72, %73
  %75 = getelementptr inbounds i8, ptr %65, i64 %74
  %76 = load ptr, ptr %5, align 8, !tbaa !3
  %77 = getelementptr inbounds nuw %struct.nghttp2_buf, ptr %76, i32 0, i32 4
  store ptr %75, ptr %77, align 8, !tbaa !13
  %78 = load ptr, ptr %8, align 8, !tbaa !16
  %79 = load ptr, ptr %5, align 8, !tbaa !3
  %80 = getelementptr inbounds nuw %struct.nghttp2_buf, ptr %79, i32 0, i32 0
  store ptr %78, ptr %80, align 8, !tbaa !7
  %81 = load ptr, ptr %8, align 8, !tbaa !16
  %82 = load i64, ptr %6, align 8, !tbaa !14
  %83 = getelementptr inbounds nuw i8, ptr %81, i64 %82
  %84 = load ptr, ptr %5, align 8, !tbaa !3
  %85 = getelementptr inbounds nuw %struct.nghttp2_buf, ptr %84, i32 0, i32 1
  store ptr %83, ptr %85, align 8, !tbaa !10
  store i32 0, ptr %4, align 4
  store i32 1, ptr %10, align 4
  br label %86

86:                                               ; preds = %38, %37, %23
  call void @llvm.lifetime.end.p0(i64 8, ptr %9) #4
  call void @llvm.lifetime.end.p0(i64 8, ptr %8) #4
  %87 = load i32, ptr %4, align 4
  ret i32 %87
}