; Function Attrs: nounwind uwtable
define hidden range(i32 -901, 1) i32 @nghttp2_buf_reserve(ptr noundef captures(none) %0, i64 noundef %1, ptr noundef %2) local_unnamed_addr #1 {
  %4 = getelementptr inbounds nuw i8, ptr %0, i64 8
  %5 = load ptr, ptr %4, align 8, !tbaa !12
  %6 = load ptr, ptr %0, align 8, !tbaa !9
  %7 = ptrtoint ptr %5 to i64
  %8 = ptrtoint ptr %6 to i64
  %9 = sub i64 %7, %8
  %.not = icmp ult i64 %9, %1
  br i1 %.not, label %10, label %34

10:                                               ; preds = %3
  %11 = shl i64 %9, 1
  %12 = tail call noundef i64 @llvm.umax.i64(i64 %1, i64 %11)
  %13 = tail call ptr @nghttp2_mem_realloc(ptr noundef %2, ptr noundef %6, i64 noundef %12) #10
  %14 = icmp eq ptr %13, null
  br i1 %14, label %34, label %15

15:                                               ; preds = %10
  %16 = getelementptr inbounds nuw i8, ptr %0, i64 16
  %17 = load ptr, ptr %16, align 8, !tbaa !3
  %18 = load ptr, ptr %0, align 8, !tbaa !9
  %19 = ptrtoint ptr %17 to i64
  %20 = ptrtoint ptr %18 to i64
  %21 = sub i64 %19, %20
  %22 = getelementptr inbounds i8, ptr %13, i64 %21
  store ptr %22, ptr %16, align 8, !tbaa !3
  %23 = getelementptr inbounds nuw i8, ptr %0, i64 24
  %24 = load ptr, ptr %23, align 8, !tbaa !10
  %25 = ptrtoint ptr %24 to i64
  %26 = sub i64 %25, %20
  %27 = getelementptr inbounds i8, ptr %13, i64 %26
  store ptr %27, ptr %23, align 8, !tbaa !10
  %28 = getelementptr inbounds nuw i8, ptr %0, i64 32
  %29 = load ptr, ptr %28, align 8, !tbaa !11
  %30 = ptrtoint ptr %29 to i64
  %31 = sub i64 %30, %20
  %32 = getelementptr inbounds i8, ptr %13, i64 %31
  store ptr %32, ptr %28, align 8, !tbaa !11
  store ptr %13, ptr %0, align 8, !tbaa !9
  %33 = getelementptr inbounds nuw i8, ptr %13, i64 %12
  store ptr %33, ptr %4, align 8, !tbaa !12
  br label %34

34:                                               ; preds = %10, %3, %15
  %.0 = phi i32 [ 0, %15 ], [ 0, %3 ], [ -901, %10 ]
  ret i32 %.0
}